target datalayout = "e-m:e-p270:32:32-p271:32:32-p272:64:64-i64:64-i128:128-f80:128-n8:16:32:64-S128"
target triple = "x86_64-pc-linux-gnu"

%struct.__va_list_tag = type { i32, i32, ptr, ptr }

@.str.80 = private unnamed_addr constant [30 x i8] c"%s: %s cannot be used with %s\00", align 1

; Function Attrs: nounwind uwtable
define internal void @verify_opt_compatible(ptr noundef %0, ptr noundef %1, ...) #0 {
  %3 = alloca ptr, align 8
  %4 = alloca ptr, align 8
  %5 = alloca ptr, align 8
  %6 = alloca [1 x %struct.__va_list_tag], align 16
  store ptr %0, ptr %3, align 8, !tbaa !11
  store ptr %1, ptr %4, align 8, !tbaa !11
  call void @llvm.lifetime.start.p0(i64 8, ptr %5) #9
  call void @llvm.lifetime.start.p0(i64 24, ptr %6) #9
  %7 = getelementptr inbounds [1 x %struct.__va_list_tag], ptr %6, i64 0, i64 0
  call void @llvm.va_start.p0(ptr %7)
  br label %8

8:                                                ; preds = %45, %2
  %9 = getelementptr inbounds [1 x %struct.__va_list_tag], ptr %6, i64 0, i64 0
  %10 = getelementptr inbounds nuw %struct.__va_list_tag, ptr %9, i32 0, i32 0
  %11 = load i32, ptr %10, align 16
  %12 = icmp ule i32 %11, 40
  br i1 %12, label %13, label %18

13:                                               ; preds = %8
  %14 = getelementptr inbounds nuw %struct.__va_list_tag, ptr %9, i32 0, i32 3
  %15 = load ptr, ptr %14, align 16
  %16 = getelementptr i8, ptr %15, i32 %11
  %17 = add i32 %11, 8
  store i32 %17, ptr %10, align 16
  br label %22

18:                                               ; preds = %8
  %19 = getelementptr inbounds nuw %struct.__va_list_tag, ptr %9, i32 0, i32 2
  %20 = load ptr, ptr %19, align 8
  %21 = getelementptr i8, ptr %20, i32 8
  store ptr %21, ptr %19, align 8
  br label %22

22:                                               ; preds = %18, %13
  %23 = phi ptr [ %16, %13 ], [ %20, %18 ]
  %24 = load ptr, ptr %23, align 8, !tbaa !11
  store ptr %24, ptr %5, align 8, !tbaa !11
  %25 = icmp ne ptr %24, null
  br i1 %25, label %26, label %46

26:                                               ; preds = %22
  %27 = getelementptr inbounds [1 x %struct.__va_list_tag], ptr %6, i64 0, i64 0
  %28 = getelementptr inbounds nuw %struct.__va_list_tag, ptr %27, i32 0, i32 0
  %29 = load i32, ptr %28, align 16
  %30 = icmp ule i32 %29, 40
  br i1 %30, label %31, label %36

31:                                               ; preds = %26
  %32 = getelementptr inbounds nuw %struct.__va_list_tag, ptr %27, i32 0, i32 3
  %33 = load ptr, ptr %32, align 16
  %34 = getelementptr i8, ptr %33, i32 %29
  %35 = add i32 %29, 8
  store i32 %35, ptr %28, align 16
  br label %40

36:                                               ; preds = %26
  %37 = getelementptr inbounds nuw %struct.__va_list_tag, ptr %27, i32 0, i32 2
  %38 = load ptr, ptr %37, align 8
  %39 = getelementptr i8, ptr %38, i32 8
  store ptr %39, ptr %37, align 8
  br label %40

40:                                               ; preds = %36, %31
  %41 = phi ptr [ %34, %31 ], [ %38, %36 ]
  %42 = load i32, ptr %41, align 4, !tbaa !4
  %43 = icmp ne i32 %42, 0
  br i1 %43, label %44, label %45

44:                                               ; preds = %40
  br label %46

45:                                               ; preds = %40
  br label %8, !llvm.loop !79

46:                                               ; preds = %44, %22
  %47 = getelementptr inbounds [1 x %struct.__va_list_tag], ptr %6, i64 0, i64 0
  call void @llvm.va_end.p0(ptr %47)
  %48 = load ptr, ptr %5, align 8, !tbaa !11
  %49 = icmp ne ptr %48, null
  br i1 %49, label %50, label %55

50:                                               ; preds = %46
  %51 = call ptr @_(ptr noundef @.str.80)
  %52 = load ptr, ptr %3, align 8, !tbaa !11
  %53 = load ptr, ptr %5, align 8, !tbaa !11
  %54 = load ptr, ptr %4, align 8, !tbaa !11
  call void (ptr, ...) @die(ptr noundef %51, ptr noundef %52, ptr noundef %53, ptr noundef %54) #10
  unreachable

55:                                               ; preds = %46
  call void @llvm.lifetime.end.p0(i64 24, ptr %6) #9
  call void @llvm.lifetime.end.p0(i64 8, ptr %5) #9
  ret void
}