; Function Attrs: nounwind uwtable
define internal void @verify_opt_compatible(ptr noundef %0, ptr noundef %1, ...) unnamed_addr #0 {
  %3 = alloca [1 x %struct.__va_list_tag], align 16
  call void @llvm.lifetime.start.p0(i64 24, ptr nonnull %3) #13
  call void @llvm.va_start.p0(ptr nonnull %3)
  %.promoted = load i32, ptr %3, align 16
  %4 = getelementptr inbounds nuw i8, ptr %3, i64 8
  %5 = getelementptr inbounds nuw i8, ptr %3, i64 16
  %6 = load ptr, ptr %5, align 16
  %.promoted8 = load ptr, ptr %4, align 8
  br label %7

7:                                                ; preds = %30, %2
  %8 = phi ptr [ %31, %30 ], [ %.promoted8, %2 ]
  %9 = phi i32 [ %32, %30 ], [ %.promoted, %2 ]
  %10 = icmp ult i32 %9, 41
  br i1 %10, label %11, label %15

11:                                               ; preds = %7
  %12 = zext nneg i32 %9 to i64
  %13 = getelementptr i8, ptr %6, i64 %12
  %14 = add nuw nsw i32 %9, 8
  store i32 %14, ptr %3, align 16
  br label %17

15:                                               ; preds = %7
  %16 = getelementptr i8, ptr %8, i64 8
  store ptr %16, ptr %4, align 8
  br label %17

17:                                               ; preds = %15, %11
  %18 = phi ptr [ %8, %11 ], [ %16, %15 ]
  %19 = phi i32 [ %14, %11 ], [ %9, %15 ]
  %20 = phi ptr [ %13, %11 ], [ %8, %15 ]
  %21 = load ptr, ptr %20, align 8, !tbaa !20
  %.not = icmp eq ptr %21, null
  br i1 %.not, label %37, label %22

22:                                               ; preds = %17
  %23 = icmp ult i32 %19, 41
  br i1 %23, label %24, label %28

24:                                               ; preds = %22
  %25 = zext nneg i32 %19 to i64
  %26 = getelementptr i8, ptr %6, i64 %25
  %27 = add nuw nsw i32 %19, 8
  store i32 %27, ptr %3, align 16
  br label %30

28:                                               ; preds = %22
  %29 = getelementptr i8, ptr %18, i64 8
  store ptr %29, ptr %4, align 8
  br label %30

30:                                               ; preds = %28, %24
  %31 = phi ptr [ %18, %24 ], [ %29, %28 ]
  %32 = phi i32 [ %27, %24 ], [ %19, %28 ]
  %33 = phi ptr [ %26, %24 ], [ %18, %28 ]
  %34 = load i32, ptr %33, align 4, !tbaa !21
  %.not6 = icmp eq i32 %34, 0
  br i1 %.not6, label %7, label %35, !llvm.loop !69

35:                                               ; preds = %30
  call void @llvm.va_end.p0(ptr nonnull %3)
  %36 = call fastcc ptr @_(ptr noundef nonnull @.str.80)
  call void (ptr, ...) @die(ptr noundef %36, ptr noundef %0, ptr noundef nonnull %21, ptr noundef %1) #14
  unreachable

37:                                               ; preds = %17
  call void @llvm.va_end.p0(ptr nonnull %3)
  call void @llvm.lifetime.end.p0(i64 24, ptr nonnull %3) #13
  ret void
}